Certificate:
    Data:
        Version: 3 (0x2)
        Serial Number:
            06:53:59:f5:71:29:56:5a:e4:90:a5:fb:90:5c:b9:ba
        Signature Algorithm: sha256WithRSAEncryption
        Issuer: CN=RedVector-CA
        Validity
            Not Before: May 14 11:40:19 2026 GMT
            Not After : Apr 28 11:40:19 2029 GMT
        Subject: CN=RedVector-CA
        Subject Public Key Info:
            Public Key Algorithm: rsaEncryption
                RSA Public-Key: (2048 bit)
                Modulus:
                    00:cd:dd:7b:fb:7e:92:14:04:48:50:00:57:90:75:
                    5d:69:a8:87:f4:31:ad:cf:a2:c8:b7:8d:e3:89:f0:
                    b2:1a:5a:61:76:62:b7:80:ac:13:fa:48:c0:1e:ae:
                    a0:dd:66:f2:54:95:c7:8d:43:9b:68:08:86:55:73:
                    96:33:f7:c3:7e:97:35:1d:5a:c0:62:13:93:16:9c:
                    76:1f:a7:34:47:ac:8f:ca:55:58:5b:70:22:e2:ba:
                    34:75:fe:2d:5f:34:67:cb:12:cb:c6:8b:fe:a2:a0:
                    0a:70:c3:e4:ad:1a:27:3d:83:91:e2:7f:b7:b3:fc:
                    b0:f4:cc:8e:73:b3:2b:3e:a3:c5:59:2d:2f:f7:a9:
                    52:39:a3:2e:88:29:c7:ec:8f:7f:2f:4a:14:66:ac:
                    f6:86:c1:36:65:ff:99:de:34:12:66:29:91:2e:42:
                    6b:86:67:0c:6a:c1:e4:da:c2:54:70:1c:7d:8a:78:
                    ea:ee:4c:17:ae:15:5a:02:38:42:5c:46:ef:c6:b4:
                    58:55:3e:e1:87:56:bb:46:83:34:7a:63:02:a8:8c:
                    bf:3d:2a:74:25:4c:f4:1f:17:ba:75:73:85:92:40:
                    fe:ed:0a:14:d7:29:98:41:d0:73:43:66:5b:a0:e3:
                    d6:e8:39:89:80:88:44:e9:85:a5:87:71:f1:69:00:
                    c6:bd
                Exponent: 65537 (0x10001)
        X509v3 extensions:
            X509v3 Basic Constraints: 
                CA:FALSE
            X509v3 Subject Key Identifier: 
                BA:66:8B:DE:68:AF:AA:57:17:1B:43:00:D4:75:65:73:28:D0:FC:1F
            X509v3 Authority Key Identifier: 
                keyid:0B:4E:85:2B:F7:45:75:FA:E4:7A:FE:79:98:52:3F:BA:03:2A:1E:A9
                DirName:/CN=RedVector-CA
                serial:1F:D3:26:B7:7A:9C:D0:7D:E4:0B:64:EB:FA:C3:0B:27:51:08:96:24

            X509v3 Extended Key Usage: 
                TLS Web Client Authentication
            X509v3 Key Usage: 
                Digital Signature
    Signature Algorithm: sha256WithRSAEncryption
         27:76:ca:f5:18:61:fc:a8:88:08:a3:7a:bf:70:4d:ba:98:a5:
         57:d4:e8:d4:7e:a1:3e:12:80:94:05:89:e0:54:3e:30:dc:08:
         28:36:83:fc:62:88:93:22:f7:ab:18:55:48:8d:74:4d:2f:7a:
         65:ca:4d:a3:4f:11:6d:51:9b:61:b4:86:08:ef:f5:d0:54:88:
         92:4d:4e:91:a0:75:4a:f8:e4:6e:fb:79:aa:4e:1c:a0:41:e4:
         ec:0c:6f:01:e8:97:99:b0:17:b0:4e:5e:27:65:fb:9b:45:53:
         62:98:34:88:38:0a:2c:b8:71:fb:b6:64:52:72:f5:e5:c8:df:
         68:b8:ef:06:3b:dd:88:9f:aa:bb:57:bd:64:f1:2d:7c:6f:0b:
         15:7f:0f:1e:61:41:1e:ab:b0:a2:3b:e6:68:46:19:35:b5:62:
         9c:b7:c7:6d:47:41:a0:9a:b7:4d:f2:e7:67:1b:b1:79:b1:3b:
         c3:23:7a:e5:34:1f:8a:36:68:1d:dd:4a:44:27:37:62:3a:7b:
         c1:2a:23:1d:59:c4:5d:f8:35:10:e4:24:3d:12:4f:6b:cd:53:
         1e:65:a2:16:e0:3d:51:e2:95:d6:30:74:16:63:44:5b:99:ca:
         01:a6:30:21:7d:7e:8b:5f:2d:e6:e0:4a:80:22:5b:fd:b5:14:
         6d:86:1d:c5
-----BEGIN CERTIFICATE-----
MIIDXDCCAkSgAwIBAgIQBlNZ9XEpVlrkkKX7kFy5ujANBgkqhkiG9w0BAQsFADAX
MRUwEwYDVQQDDAxSZWRWZWN0b3ItQ0EwHhcNMjYwNTE0MTE0MDE5WhcNMjkwNDI4
MTE0MDE5WjAXMRUwEwYDVQQDDAxSZWRWZWN0b3ItQ0EwggEiMA0GCSqGSIb3DQEB
AQUAA4IBDwAwggEKAoIBAQDN3Xv7fpIUBEhQAFeQdV1pqIf0Ma3Posi3jeOJ8LIa
WmF2YreArBP6SMAerqDdZvJUlceNQ5toCIZVc5Yz98N+lzUdWsBiE5MWnHYfpzRH
rI/KVVhbcCLiujR1/i1fNGfLEsvGi/6ioApww+StGic9g5Hif7ez/LD0zI5zsys+
o8VZLS/3qVI5oy6IKcfsj38vShRmrPaGwTZl/5neNBJmKZEuQmuGZwxqweTawlRw
HH2KeOruTBeuFVoCOEJcRu/GtFhVPuGHVrtGgzR6YwKojL89KnQlTPQfF7p1c4WS
QP7tChTXKZhB0HNDZlug49boOYmAiETphaWHcfFpAMa9AgMBAAGjgaMwgaAwCQYD
VR0TBAIwADAdBgNVHQ4EFgQUumaL3mivqlcXG0MA1HVlcyjQ/B8wUgYDVR0jBEsw
SYAUC06FK/dFdfrkev55mFI/ugMqHqmhG6QZMBcxFTATBgNVBAMMDFJlZFZlY3Rv
ci1DQYIUH9Mmt3qc0H3kC2Tr+sMLJ1EIliQwEwYDVR0lBAwwCgYIKwYBBQUHAwIw
CwYDVR0PBAQDAgeAMA0GCSqGSIb3DQEBCwUAA4IBAQAndsr1GGH8qIgIo3q/cE26
mKVX1OjUfqE+EoCUBYngVD4w3AgoNoP8YoiTIverGFVIjXRNL3plyk2jTxFtUZth
tIYI7/XQVIiSTU6RoHVK+ORu+3mqThygQeTsDG8B6JeZsBewTl4nZfubRVNimDSI
OAosuHH7tmRScvXlyN9ouO8GO92In6q7V71k8S18bwsVfw8eYUEeq7CiO+ZoRhk1
tWKct8dtR0GgmrdN8udnG7F5sTvDI3rlNB+KNmgd3UpEJzdiOnvBKiMdWcRd+DUQ
5CQ9Ek9rzVMeZaIW4D1R4pXWMHQWY0RbmcoBpjAhfX6LXy3m4EqAIlv9tRRthh3F
-----END CERTIFICATE-----
