Certificate:
    Data:
        Version: 3 (0x2)
        Serial Number:
            cb:ba:7a:c0:7c:bf:6d:50:2f:ec:8b:a5:ce:ea:f7:85
        Signature Algorithm: sha256WithRSAEncryption
        Issuer: CN=RedVector-CA
        Validity
            Not Before: May 13 12:24:17 2026 GMT
            Not After : Apr 27 12:24:17 2029 GMT
        Subject: CN=RedVector-CA
        Subject Public Key Info:
            Public Key Algorithm: rsaEncryption
                RSA Public-Key: (2048 bit)
                Modulus:
                    00:c9:5f:62:69:b2:42:86:4c:94:b3:95:c0:75:c8:
                    6c:84:ae:40:07:11:94:85:a6:2e:17:9f:d4:a5:b9:
                    47:c2:76:31:a6:83:55:fc:17:ef:b4:ff:4e:19:27:
                    f6:38:53:5c:f4:9f:23:71:4c:8a:79:7e:a9:44:ee:
                    e2:83:7a:2e:89:5e:e9:28:10:80:f7:4f:a2:3e:60:
                    ea:9f:a8:41:a0:39:6f:72:34:1f:17:8b:0e:fe:b1:
                    ed:a2:8f:30:8c:86:35:03:11:7e:19:c6:e1:58:40:
                    05:8a:18:0d:d0:32:14:04:e1:75:97:68:24:9c:51:
                    a9:6c:4b:40:cf:6c:8a:0d:95:e3:dd:7b:bd:92:f0:
                    6f:ac:fb:b7:d2:79:9e:00:1f:d4:49:71:41:f0:04:
                    3d:52:4f:b3:70:10:d9:c5:c2:0d:74:44:b8:4c:84:
                    03:78:66:ee:e5:14:50:ee:c2:95:e8:69:45:57:2b:
                    42:44:fe:dc:23:c5:8c:92:eb:2c:58:99:d5:4d:19:
                    5f:8f:b3:b2:be:ad:55:d9:94:d7:d5:3e:f1:b8:1b:
                    d7:64:e3:f0:7a:22:8a:b8:a9:3f:09:c6:dd:35:4d:
                    da:ca:f8:e4:df:aa:a7:a4:8b:c7:17:9d:b1:02:e8:
                    0d:da:22:96:57:7d:21:ae:dd:56:40:68:73:43:ef:
                    91:f9
                Exponent: 65537 (0x10001)
        X509v3 extensions:
            X509v3 Basic Constraints: 
                CA:FALSE
            X509v3 Subject Key Identifier: 
                8C:5F:BB:1D:CB:CA:0C:29:78:D6:1E:A8:C6:66:9F:98:78:AD:94:BA
            X509v3 Authority Key Identifier: 
                keyid:CF:F5:4A:95:DB:49:5B:40:50:66:D3:AC:A0:96:14:D1:5C:61:83:ED
                DirName:/CN=RedVector-CA
                serial:48:93:23:96:17:4B:87:73:C4:09:B8:C8:2C:AD:AA:AA:57:01:74:F2

            X509v3 Extended Key Usage: 
                TLS Web Client Authentication
            X509v3 Key Usage: 
                Digital Signature
    Signature Algorithm: sha256WithRSAEncryption
         0d:ca:b7:4d:9c:6a:7b:00:84:00:63:d5:b4:c6:d9:b7:82:1c:
         24:c5:7c:a5:09:64:5e:a9:9e:7c:b6:83:12:ff:8a:14:30:95:
         d9:f9:ca:cb:15:f8:7f:ce:ca:ec:ee:01:47:13:7f:0d:cb:21:
         50:ce:de:55:27:36:ee:5e:82:2f:53:9d:b2:2e:8a:68:85:c5:
         0f:38:52:28:28:90:0e:52:80:d4:cf:d2:97:b7:56:47:99:9d:
         e6:49:ee:72:05:b9:13:15:28:6b:4c:98:b2:4d:7b:f0:4a:6a:
         6b:c1:f2:eb:c9:01:9d:f8:00:86:e0:dc:b8:74:58:a7:aa:75:
         92:ca:3d:ad:a3:21:dd:bf:38:df:3c:28:80:81:b1:09:96:b1:
         11:05:55:39:a3:e2:ac:41:01:27:f5:2f:a0:31:1e:d9:a7:fc:
         8b:30:5c:8f:09:03:51:3b:23:11:60:82:51:bb:8d:0f:5b:56:
         81:50:3e:e9:69:b5:05:db:d2:48:f6:93:d9:0a:96:29:77:1f:
         4c:9e:39:03:8f:52:53:84:8e:7f:ad:e1:d2:7a:f0:1e:b4:cb:
         af:30:39:09:f6:08:00:5a:06:67:fc:a0:d6:07:6a:92:97:d4:
         e5:0b:e1:13:81:62:f3:7e:e4:2c:b6:88:a9:8d:56:b3:1b:19:
         38:a5:de:3a
-----BEGIN CERTIFICATE-----
MIIDXTCCAkWgAwIBAgIRAMu6esB8v21QL+yLpc7q94UwDQYJKoZIhvcNAQELBQAw
FzEVMBMGA1UEAwwMUmVkVmVjdG9yLUNBMB4XDTI2MDUxMzEyMjQxN1oXDTI5MDQy
NzEyMjQxN1owFzEVMBMGA1UEAwwMUmVkVmVjdG9yLUNBMIIBIjANBgkqhkiG9w0B
AQEFAAOCAQ8AMIIBCgKCAQEAyV9iabJChkyUs5XAdchshK5ABxGUhaYuF5/UpblH
wnYxpoNV/BfvtP9OGSf2OFNc9J8jcUyKeX6pRO7ig3ouiV7pKBCA90+iPmDqn6hB
oDlvcjQfF4sO/rHtoo8wjIY1AxF+GcbhWEAFihgN0DIUBOF1l2gknFGpbEtAz2yK
DZXj3Xu9kvBvrPu30nmeAB/USXFB8AQ9Uk+zcBDZxcINdES4TIQDeGbu5RRQ7sKV
6GlFVytCRP7cI8WMkussWJnVTRlfj7Oyvq1V2ZTX1T7xuBvXZOPweiKKuKk/Ccbd
NU3ayvjk36qnpIvHF52xAugN2iKWV30hrt1WQGhzQ++R+QIDAQABo4GjMIGgMAkG
A1UdEwQCMAAwHQYDVR0OBBYEFIxfux3LygwpeNYeqMZmn5h4rZS6MFIGA1UdIwRL
MEmAFM/1SpXbSVtAUGbTrKCWFNFcYYPtoRukGTAXMRUwEwYDVQQDDAxSZWRWZWN0
b3ItQ0GCFEiTI5YXS4dzxAm4yCytqqpXAXTyMBMGA1UdJQQMMAoGCCsGAQUFBwMC
MAsGA1UdDwQEAwIHgDANBgkqhkiG9w0BAQsFAAOCAQEADcq3TZxqewCEAGPVtMbZ
t4IcJMV8pQlkXqmefLaDEv+KFDCV2fnKyxX4f87K7O4BRxN/DcshUM7eVSc27l6C
L1Odsi6KaIXFDzhSKCiQDlKA1M/Sl7dWR5md5knucgW5ExUoa0yYsk178Epqa8Hy
68kBnfgAhuDcuHRYp6p1kso9raMh3b843zwogIGxCZaxEQVVOaPirEEBJ/UvoDEe
2af8izBcjwkDUTsjEWCCUbuND1tWgVA+6Wm1BdvSSPaT2QqWKXcfTJ45A49SU4SO
f63h0nrwHrTLrzA5CfYIAFoGZ/yg1gdqkpfU5QvhE4Fi837kLLaIqY1WsxsZOKXe
Og==
-----END CERTIFICATE-----
