Certificate:
    Data:
        Version: 3 (0x2)
        Serial Number:
            5e:e9:7a:9c:ce:42:99:26:1a:6a:4e:76:77:62:53:1e
        Signature Algorithm: sha256WithRSAEncryption
        Issuer: CN=RedVector-CA
        Validity
            Not Before: May 28 18:43:13 2026 GMT
            Not After : May 12 18:43:13 2029 GMT
        Subject: CN=RedVector-CA
        Subject Public Key Info:
            Public Key Algorithm: rsaEncryption
                RSA Public-Key: (2048 bit)
                Modulus:
                    00:9e:22:9a:4a:3a:0b:15:ad:1e:ed:a3:70:aa:41:
                    0e:47:29:da:f8:47:07:fc:eb:41:1c:6f:08:15:2b:
                    7b:1d:7c:3f:b1:de:4a:db:4b:e6:bb:db:71:b3:b1:
                    23:b3:79:5c:fd:35:15:13:51:8b:f5:6e:2c:3e:0d:
                    a0:a1:46:c0:d0:f9:6f:0b:c3:ae:2a:59:5e:63:42:
                    e9:64:b8:3e:13:ad:aa:f2:a0:a5:da:44:67:c9:e5:
                    40:77:91:f7:0b:5b:a0:6f:e3:5f:04:71:64:12:81:
                    4e:b5:63:14:48:d0:2c:8e:9c:10:44:78:77:e3:8d:
                    09:fd:b5:78:ce:0c:fb:4b:2b:e6:fb:11:e6:f1:1e:
                    fd:b3:f5:a2:16:ed:1e:ab:99:fe:7e:b5:5d:bd:e0:
                    7e:61:3f:0a:c5:e3:f6:90:07:32:1a:c3:6c:1b:da:
                    85:9b:7b:7d:4f:18:0f:0e:33:ee:84:b8:4f:c3:35:
                    23:85:0b:2b:c5:75:b5:d6:c4:0b:78:7b:8f:1e:62:
                    e5:a7:9d:93:82:84:f9:02:ef:9e:c3:f4:d8:d0:4b:
                    cf:e5:99:ad:08:f8:d8:1c:af:af:47:cf:e1:6b:34:
                    11:c8:f9:8f:10:de:a2:f6:37:3c:93:90:a3:9e:90:
                    33:d1:9e:c3:b5:b1:2b:9d:9d:29:00:1a:09:74:5b:
                    53:6b
                Exponent: 65537 (0x10001)
        X509v3 extensions:
            X509v3 Basic Constraints: 
                CA:FALSE
            X509v3 Subject Key Identifier: 
                75:02:3F:AF:0A:21:59:96:3A:5F:55:B6:69:B4:46:0D:28:91:FA:74
            X509v3 Authority Key Identifier: 
                keyid:1A:EB:15:1B:0B:57:76:41:C6:19:62:CD:48:EB:CD:E0:1F:E9:DD:95
                DirName:/CN=RedVector-CA
                serial:72:CD:71:89:00:89:68:CF:D8:C0:B2:C2:66:01:39:02:68:9D:AE:D9

            X509v3 Extended Key Usage: 
                TLS Web Client Authentication
            X509v3 Key Usage: 
                Digital Signature
    Signature Algorithm: sha256WithRSAEncryption
         82:56:d5:a9:6d:2d:9b:c8:f9:54:0a:b0:d0:3c:7b:a0:ae:dd:
         22:9a:1d:19:aa:d2:42:73:19:01:a1:fe:06:cb:52:42:68:e3:
         d5:59:7a:90:12:a3:9d:15:30:13:c1:f7:b8:d2:68:dd:fb:7e:
         ee:b5:ad:f7:fc:82:ba:02:1f:61:e0:e5:76:ce:14:2f:ed:ad:
         88:00:cc:83:ec:78:cb:07:25:5f:05:89:44:e1:1b:18:a8:31:
         e3:82:4a:55:23:a1:f9:75:0b:da:e7:2a:d5:6c:3a:71:2d:1d:
         bd:05:fd:30:ce:ec:34:ba:e9:56:ba:c9:a7:0b:6f:9c:6a:1d:
         2e:ea:73:32:22:22:06:57:4a:28:5b:3e:d3:45:3b:de:3e:af:
         a0:23:8a:94:a2:98:ad:bb:b8:ed:20:4d:5a:05:f2:37:58:f6:
         71:91:bb:43:14:15:a1:0c:d5:37:1b:11:1e:1c:a3:a1:79:68:
         13:d1:b3:a3:66:7e:c8:f1:a2:37:d4:10:60:2c:5d:25:a5:44:
         62:0f:07:5f:47:00:e9:6a:1f:90:13:c9:45:82:8e:ed:23:bb:
         69:05:8e:85:9c:ad:3d:41:32:5d:7a:02:62:7a:2b:c3:46:f7:
         6c:b2:b1:56:93:b1:78:3c:34:92:66:56:6a:38:58:f6:0d:dd:
         08:f8:7c:68
-----BEGIN CERTIFICATE-----
MIIDXDCCAkSgAwIBAgIQXul6nM5CmSYaak52d2JTHjANBgkqhkiG9w0BAQsFADAX
MRUwEwYDVQQDDAxSZWRWZWN0b3ItQ0EwHhcNMjYwNTI4MTg0MzEzWhcNMjkwNTEy
MTg0MzEzWjAXMRUwEwYDVQQDDAxSZWRWZWN0b3ItQ0EwggEiMA0GCSqGSIb3DQEB
AQUAA4IBDwAwggEKAoIBAQCeIppKOgsVrR7to3CqQQ5HKdr4Rwf860EcbwgVK3sd
fD+x3krbS+a723GzsSOzeVz9NRUTUYv1biw+DaChRsDQ+W8Lw64qWV5jQulkuD4T
raryoKXaRGfJ5UB3kfcLW6Bv418EcWQSgU61YxRI0CyOnBBEeHfjjQn9tXjODPtL
K+b7EebxHv2z9aIW7R6rmf5+tV294H5hPwrF4/aQBzIaw2wb2oWbe31PGA8OM+6E
uE/DNSOFCyvFdbXWxAt4e48eYuWnnZOChPkC757D9NjQS8/lma0I+Ngcr69Hz+Fr
NBHI+Y8Q3qL2NzyTkKOekDPRnsO1sSudnSkAGgl0W1NrAgMBAAGjgaMwgaAwCQYD
VR0TBAIwADAdBgNVHQ4EFgQUdQI/rwohWZY6X1W2abRGDSiR+nQwUgYDVR0jBEsw
SYAUGusVGwtXdkHGGWLNSOvN4B/p3ZWhG6QZMBcxFTATBgNVBAMMDFJlZFZlY3Rv
ci1DQYIUcs1xiQCJaM/YwLLCZgE5AmidrtkwEwYDVR0lBAwwCgYIKwYBBQUHAwIw
CwYDVR0PBAQDAgeAMA0GCSqGSIb3DQEBCwUAA4IBAQCCVtWpbS2byPlUCrDQPHug
rt0imh0ZqtJCcxkBof4Gy1JCaOPVWXqQEqOdFTATwfe40mjd+37uta33/IK6Ah9h
4OV2zhQv7a2IAMyD7HjLByVfBYlE4RsYqDHjgkpVI6H5dQva5yrVbDpxLR29Bf0w
zuw0uulWusmnC2+cah0u6nMyIiIGV0ooWz7TRTvePq+gI4qUopitu7jtIE1aBfI3
WPZxkbtDFBWhDNU3GxEeHKOheWgT0bOjZn7I8aI31BBgLF0lpURiDwdfRwDpah+Q
E8lFgo7tI7tpBY6FnK09QTJdegJieivDRvdssrFWk7F4PDSSZlZqOFj2Dd0I+Hxo
-----END CERTIFICATE-----
