Certificate:
    Data:
        Version: 3 (0x2)
        Serial Number:
            4d:54:1a:2f:51:20:29:e3:52:41:36:ac:46:ba:6b:4e
        Signature Algorithm: sha256WithRSAEncryption
        Issuer: CN=RedVector-CA
        Validity
            Not Before: May 14 11:40:19 2026 GMT
            Not After : Apr 28 11:40:19 2029 GMT
        Subject: CN=RedVector-CA
        Subject Public Key Info:
            Public Key Algorithm: rsaEncryption
                RSA Public-Key: (2048 bit)
                Modulus:
                    00:db:e1:27:ff:82:ae:5e:2d:65:69:de:d3:7b:b3:
                    d4:00:f0:d6:6a:67:ba:5e:a4:8b:17:d4:75:52:d2:
                    17:3f:e0:34:35:4e:1e:8e:83:b3:6a:ee:a3:2e:a0:
                    cb:de:6c:d2:b5:5a:97:ff:a6:c2:f4:a4:97:fe:fe:
                    d1:be:ac:81:4e:49:0b:d1:5c:95:9b:04:97:7b:54:
                    94:af:a8:4f:d8:ce:95:46:de:24:1d:0b:6b:2d:2e:
                    a6:5a:c0:df:c7:c0:c0:31:ba:ca:eb:92:49:f7:d6:
                    ff:6b:ef:87:2b:b0:88:b1:8a:6a:b1:6b:aa:6f:65:
                    f8:9c:29:13:fc:09:12:53:4d:72:ac:ef:6a:93:9e:
                    66:24:4e:87:b6:b3:ba:00:e4:95:57:b3:66:05:7e:
                    6c:b2:6b:62:21:5c:dc:5f:3d:e6:0d:77:e3:91:32:
                    d7:e4:4c:8c:62:75:b0:74:c1:25:dd:b8:66:79:38:
                    e7:95:a9:17:89:85:f5:2b:23:4e:66:70:09:ee:d4:
                    a5:36:a6:a6:18:2d:38:44:7b:8f:84:87:60:09:01:
                    66:a4:59:cb:72:38:09:48:99:69:ad:b6:95:85:8a:
                    7a:86:0f:5e:5a:55:cf:52:8d:a5:f4:bb:e6:fa:96:
                    cf:c4:e8:29:23:b1:23:c3:a7:74:eb:ff:fa:3c:87:
                    f4:cf
                Exponent: 65537 (0x10001)
        X509v3 extensions:
            X509v3 Basic Constraints: 
                CA:FALSE
            X509v3 Subject Key Identifier: 
                33:85:E2:90:C0:EA:24:AC:34:20:DD:D6:56:8F:FC:1F:94:DB:92:DA
            X509v3 Authority Key Identifier: 
                keyid:0B:4E:85:2B:F7:45:75:FA:E4:7A:FE:79:98:52:3F:BA:03:2A:1E:A9
                DirName:/CN=RedVector-CA
                serial:1F:D3:26:B7:7A:9C:D0:7D:E4:0B:64:EB:FA:C3:0B:27:51:08:96:24

            X509v3 Extended Key Usage: 
                TLS Web Client Authentication
            X509v3 Key Usage: 
                Digital Signature
    Signature Algorithm: sha256WithRSAEncryption
         71:57:20:02:96:86:41:69:0f:22:cd:23:0d:e7:42:aa:ff:c2:
         33:19:17:59:2f:5d:be:95:f9:15:a7:3b:12:08:fd:ac:87:45:
         54:65:82:17:f6:d8:0a:f6:f4:10:4f:71:67:eb:93:21:24:36:
         56:1b:c1:e0:c0:5e:0c:6b:d8:39:1f:fd:19:86:7d:13:92:3f:
         6b:2e:11:3e:e7:d1:2d:ff:8e:fb:32:87:f0:0c:5e:63:00:13:
         15:c9:41:1b:d9:a8:78:ea:8a:9f:84:c7:a3:b8:97:8e:6a:1d:
         4c:2c:b7:21:76:93:9d:46:5d:e8:96:fd:e1:c0:41:8e:0d:f1:
         78:b3:19:c0:29:5e:59:09:24:0c:77:12:a5:bf:b6:71:38:22:
         cf:ea:ce:9a:d1:2a:cc:d7:b8:de:df:fe:99:62:32:2f:90:2c:
         37:6c:0d:a3:52:bf:73:40:fa:ba:bd:d5:0d:82:bb:5a:c2:53:
         1a:de:81:a0:c3:fd:7a:4d:d3:66:04:15:6d:55:e1:fe:7d:d8:
         b3:8e:79:89:2a:6f:0e:86:49:db:fb:8e:22:53:32:c6:00:08:
         e5:a9:b4:05:70:45:61:8c:3d:29:3f:36:37:81:4f:78:c6:36:
         96:b8:73:a7:cb:1c:d0:37:ed:d7:2e:3d:71:1c:f6:9a:d9:ed:
         7e:e3:22:25
-----BEGIN CERTIFICATE-----
MIIDXDCCAkSgAwIBAgIQTVQaL1EgKeNSQTasRrprTjANBgkqhkiG9w0BAQsFADAX
MRUwEwYDVQQDDAxSZWRWZWN0b3ItQ0EwHhcNMjYwNTE0MTE0MDE5WhcNMjkwNDI4
MTE0MDE5WjAXMRUwEwYDVQQDDAxSZWRWZWN0b3ItQ0EwggEiMA0GCSqGSIb3DQEB
AQUAA4IBDwAwggEKAoIBAQDb4Sf/gq5eLWVp3tN7s9QA8NZqZ7pepIsX1HVS0hc/
4DQ1Th6Og7Nq7qMuoMvebNK1Wpf/psL0pJf+/tG+rIFOSQvRXJWbBJd7VJSvqE/Y
zpVG3iQdC2stLqZawN/HwMAxusrrkkn31v9r74crsIiximqxa6pvZficKRP8CRJT
TXKs72qTnmYkToe2s7oA5JVXs2YFfmyya2IhXNxfPeYNd+ORMtfkTIxidbB0wSXd
uGZ5OOeVqReJhfUrI05mcAnu1KU2pqYYLThEe4+Eh2AJAWakWctyOAlImWmttpWF
inqGD15aVc9SjaX0u+b6ls/E6CkjsSPDp3Tr//o8h/TPAgMBAAGjgaMwgaAwCQYD
VR0TBAIwADAdBgNVHQ4EFgQUM4XikMDqJKw0IN3WVo/8H5TbktowUgYDVR0jBEsw
SYAUC06FK/dFdfrkev55mFI/ugMqHqmhG6QZMBcxFTATBgNVBAMMDFJlZFZlY3Rv
ci1DQYIUH9Mmt3qc0H3kC2Tr+sMLJ1EIliQwEwYDVR0lBAwwCgYIKwYBBQUHAwIw
CwYDVR0PBAQDAgeAMA0GCSqGSIb3DQEBCwUAA4IBAQBxVyACloZBaQ8izSMN50Kq
/8IzGRdZL12+lfkVpzsSCP2sh0VUZYIX9tgK9vQQT3Fn65MhJDZWG8HgwF4Ma9g5
H/0Zhn0Tkj9rLhE+59Et/477MofwDF5jABMVyUEb2ah46oqfhMejuJeOah1MLLch
dpOdRl3olv3hwEGODfF4sxnAKV5ZCSQMdxKlv7ZxOCLP6s6a0SrM17je3/6ZYjIv
kCw3bA2jUr9zQPq6vdUNgrtawlMa3oGgw/16TdNmBBVtVeH+fdizjnmJKm8Ohknb
+44iUzLGAAjlqbQFcEVhjD0pPzY3gU94xjaWuHOnyxzQN+3XLj1xHPaa2e1+4yIl
-----END CERTIFICATE-----
