Certificate:
    Data:
        Version: 3 (0x2)
        Serial Number:
            7a:99:f6:e4:3b:67:ce:ec:ab:19:ff:24:b2:9d:67:26
        Signature Algorithm: sha256WithRSAEncryption
        Issuer: CN=RedVector-CA
        Validity
            Not Before: May 13 12:24:17 2026 GMT
            Not After : Apr 27 12:24:17 2029 GMT
        Subject: CN=RedVector-CA
        Subject Public Key Info:
            Public Key Algorithm: rsaEncryption
                RSA Public-Key: (2048 bit)
                Modulus:
                    00:ce:2f:c9:0d:45:88:16:cf:65:d8:6c:84:0e:e8:
                    a8:f6:f1:d4:56:58:fc:08:c5:7a:b3:7e:86:6d:7f:
                    c4:08:c3:30:53:35:d0:72:c6:8e:05:cc:35:79:c1:
                    7a:d0:06:10:e8:e8:51:85:cf:c5:76:cc:2d:9b:e6:
                    3b:a9:ba:e7:ac:70:79:a2:ce:47:45:30:4c:46:83:
                    c8:18:19:71:d0:dc:49:17:d7:75:f4:99:2b:88:09:
                    b0:d0:b8:85:26:84:76:28:41:a3:b8:d2:dc:d0:5b:
                    9a:18:66:88:1f:d8:9f:85:87:7d:01:7b:1d:d1:0a:
                    4d:7f:e1:9c:1f:9d:79:df:fd:18:14:d2:9b:52:1e:
                    ee:50:eb:0c:54:b1:7b:6e:4c:c0:b7:8b:77:d3:c4:
                    35:a5:4d:9a:59:e5:f6:02:33:c7:4f:52:eb:15:bb:
                    78:44:1a:6f:fe:06:b2:33:9e:81:b6:b6:04:f2:49:
                    e7:cb:8f:a3:47:57:d6:d8:d8:43:c8:b2:54:27:85:
                    41:28:8e:dc:f4:8e:31:fa:18:eb:f6:7b:ec:29:1d:
                    c4:ee:bd:72:ac:60:f0:b1:6e:6f:29:82:80:2e:c0:
                    da:a6:c7:7b:08:d6:07:48:f1:c2:b1:38:91:8a:38:
                    f2:be:66:56:90:43:e9:73:4a:b7:dd:00:23:69:e6:
                    8b:b7
                Exponent: 65537 (0x10001)
        X509v3 extensions:
            X509v3 Basic Constraints: 
                CA:FALSE
            X509v3 Subject Key Identifier: 
                41:43:D5:0F:00:EC:24:B0:48:7B:DA:72:4B:9D:27:96:B5:58:0D:60
            X509v3 Authority Key Identifier: 
                keyid:CF:F5:4A:95:DB:49:5B:40:50:66:D3:AC:A0:96:14:D1:5C:61:83:ED
                DirName:/CN=RedVector-CA
                serial:48:93:23:96:17:4B:87:73:C4:09:B8:C8:2C:AD:AA:AA:57:01:74:F2

            X509v3 Extended Key Usage: 
                TLS Web Client Authentication
            X509v3 Key Usage: 
                Digital Signature
    Signature Algorithm: sha256WithRSAEncryption
         9b:45:dc:48:a6:0f:59:60:c9:f2:98:c8:86:0f:47:07:58:c9:
         21:00:3b:f0:e3:9e:07:d1:d0:f8:ed:5f:f9:5c:6d:93:21:5e:
         ff:7e:59:81:04:82:bb:9f:9b:91:6c:a2:2c:ce:43:36:a3:c7:
         96:87:87:4d:43:55:21:88:53:b9:88:ec:47:eb:97:bf:8a:47:
         4b:a1:51:23:cc:b0:84:93:85:0c:ea:2b:06:70:13:9a:53:18:
         3b:ae:a1:3f:3c:63:9e:79:0b:a5:7d:e9:d1:2b:9a:83:76:80:
         ce:cb:d3:d4:59:78:c5:ad:8c:a3:b5:5b:5a:95:5d:98:40:f2:
         4d:56:66:01:2f:5b:da:dc:fe:df:ea:e0:35:ea:4d:2c:b0:b7:
         ce:82:68:40:4e:d4:43:86:56:5d:68:f7:88:a7:e2:b6:c3:4b:
         d1:34:1b:2d:7c:b5:ae:54:ee:a8:e2:06:64:02:3a:41:c4:9e:
         4f:82:d7:63:14:f5:bb:53:b1:ae:7b:30:57:7f:16:4e:84:7f:
         6d:62:e3:f0:71:68:a4:8f:1c:97:7e:b0:5b:1b:7c:fc:89:38:
         9a:8c:d5:68:a6:05:29:8c:1a:b7:cc:77:93:6f:43:3e:d4:61:
         38:cc:46:7f:5d:54:64:e8:cf:48:d6:67:e9:6a:5b:43:a7:ae:
         a0:f4:9d:d8
-----BEGIN CERTIFICATE-----
MIIDXDCCAkSgAwIBAgIQepn25DtnzuyrGf8ksp1nJjANBgkqhkiG9w0BAQsFADAX
MRUwEwYDVQQDDAxSZWRWZWN0b3ItQ0EwHhcNMjYwNTEzMTIyNDE3WhcNMjkwNDI3
MTIyNDE3WjAXMRUwEwYDVQQDDAxSZWRWZWN0b3ItQ0EwggEiMA0GCSqGSIb3DQEB
AQUAA4IBDwAwggEKAoIBAQDOL8kNRYgWz2XYbIQO6Kj28dRWWPwIxXqzfoZtf8QI
wzBTNdByxo4FzDV5wXrQBhDo6FGFz8V2zC2b5jupuuescHmizkdFMExGg8gYGXHQ
3EkX13X0mSuICbDQuIUmhHYoQaO40tzQW5oYZogf2J+Fh30Bex3RCk1/4ZwfnXnf
/RgU0ptSHu5Q6wxUsXtuTMC3i3fTxDWlTZpZ5fYCM8dPUusVu3hEGm/+BrIznoG2
tgTySefLj6NHV9bY2EPIslQnhUEojtz0jjH6GOv2e+wpHcTuvXKsYPCxbm8pgoAu
wNqmx3sI1gdI8cKxOJGKOPK+ZlaQQ+lzSrfdACNp5ou3AgMBAAGjgaMwgaAwCQYD
VR0TBAIwADAdBgNVHQ4EFgQUQUPVDwDsJLBIe9pyS50nlrVYDWAwUgYDVR0jBEsw
SYAUz/VKldtJW0BQZtOsoJYU0Vxhg+2hG6QZMBcxFTATBgNVBAMMDFJlZFZlY3Rv
ci1DQYIUSJMjlhdLh3PECbjILK2qqlcBdPIwEwYDVR0lBAwwCgYIKwYBBQUHAwIw
CwYDVR0PBAQDAgeAMA0GCSqGSIb3DQEBCwUAA4IBAQCbRdxIpg9ZYMnymMiGD0cH
WMkhADvw454H0dD47V/5XG2TIV7/flmBBIK7n5uRbKIszkM2o8eWh4dNQ1UhiFO5
iOxH65e/ikdLoVEjzLCEk4UM6isGcBOaUxg7rqE/PGOeeQulfenRK5qDdoDOy9PU
WXjFrYyjtVtalV2YQPJNVmYBL1va3P7f6uA16k0ssLfOgmhATtRDhlZdaPeIp+K2
w0vRNBstfLWuVO6o4gZkAjpBxJ5PgtdjFPW7U7GuezBXfxZOhH9tYuPwcWikjxyX
frBbG3z8iTiajNVopgUpjBq3zHeTb0M+1GE4zEZ/XVRk6M9I1mfpaltDp66g9J3Y
-----END CERTIFICATE-----
