Certificate:
    Data:
        Version: 3 (0x2)
        Serial Number:
            b3:e3:0d:94:ad:08:1d:ce:8f:61:fc:3d:4a:4b:02:85
        Signature Algorithm: sha256WithRSAEncryption
        Issuer: CN=RedVector-CA
        Validity
            Not Before: May 28 18:43:13 2026 GMT
            Not After : May 12 18:43:13 2029 GMT
        Subject: CN=RedVector-CA
        Subject Public Key Info:
            Public Key Algorithm: rsaEncryption
                RSA Public-Key: (2048 bit)
                Modulus:
                    00:c8:25:1c:cd:7f:c8:86:ca:e8:ab:92:9c:eb:f3:
                    42:1f:ed:8b:ea:74:d4:c9:1d:a9:14:9a:65:c5:67:
                    68:40:05:d7:86:bb:81:24:43:ff:fb:7a:c7:8e:49:
                    aa:0d:cc:f8:c6:5c:40:96:0c:69:23:dd:cd:85:34:
                    2a:66:f8:3e:dd:46:b5:ed:97:ea:6a:b8:2f:de:03:
                    35:80:c1:a1:d2:ca:54:0d:74:43:fe:ce:27:6e:7f:
                    91:a7:42:10:2c:7c:c5:0a:a4:fe:9c:62:9b:f9:6d:
                    0c:9a:d1:64:12:52:8b:00:52:d5:ae:59:f0:ca:9b:
                    8b:b4:f2:08:d9:d0:bc:5f:b6:13:8a:9a:e3:fb:b7:
                    2b:dd:4b:35:67:9f:6d:51:d6:41:34:50:3a:f6:c7:
                    c3:d8:e4:e4:14:e7:86:b2:94:51:46:f2:e4:ff:c4:
                    48:30:3d:c9:6b:e0:92:b1:ca:13:2a:cd:5a:6e:8f:
                    48:be:99:ac:8b:d6:6b:fe:7a:4f:9d:38:27:11:f7:
                    f9:ba:96:48:c6:57:ff:5d:ca:a6:03:76:63:ce:c9:
                    eb:6e:66:5c:44:9c:f6:00:75:ad:ca:c8:0b:01:9e:
                    9a:ce:55:db:75:4b:63:09:49:cb:49:55:6f:c8:32:
                    5f:b6:20:60:f3:49:21:1e:7b:40:11:ee:62:42:95:
                    4b:db
                Exponent: 65537 (0x10001)
        X509v3 extensions:
            X509v3 Basic Constraints: 
                CA:FALSE
            X509v3 Subject Key Identifier: 
                45:52:DD:86:71:D6:BC:AC:D6:2F:55:08:D3:46:C5:0E:2A:4E:EF:5A
            X509v3 Authority Key Identifier: 
                keyid:1A:EB:15:1B:0B:57:76:41:C6:19:62:CD:48:EB:CD:E0:1F:E9:DD:95
                DirName:/CN=RedVector-CA
                serial:72:CD:71:89:00:89:68:CF:D8:C0:B2:C2:66:01:39:02:68:9D:AE:D9

            X509v3 Extended Key Usage: 
                TLS Web Client Authentication
            X509v3 Key Usage: 
                Digital Signature
    Signature Algorithm: sha256WithRSAEncryption
         67:15:a8:c7:d1:0a:8e:70:6a:e8:6d:7b:b7:a3:95:e4:b4:c6:
         43:f9:c2:d0:ec:d9:29:d3:46:23:70:7f:41:bd:16:95:3c:54:
         42:17:b7:b6:21:24:99:be:5f:c5:9d:a4:db:f9:92:20:b4:93:
         ed:a3:5c:1f:6b:7f:22:82:ba:a6:92:63:ce:b6:79:a5:f3:15:
         24:7a:ec:4a:61:87:8c:06:64:16:25:f8:2d:c6:6b:86:2b:65:
         6c:14:08:70:5a:c3:06:8f:fb:1d:96:5a:c3:77:b1:67:3b:62:
         0b:c1:f9:b1:0f:5c:ee:5d:f4:42:f3:2c:7c:2a:c3:e1:12:3d:
         aa:5d:70:5b:3b:c1:d6:dc:a2:6c:a3:24:38:b7:66:d1:1e:87:
         dd:7c:05:1c:4f:5f:d5:2b:ad:bc:03:dc:70:81:f9:c7:be:94:
         87:fc:51:67:2d:e1:76:ef:8f:b7:89:65:80:93:04:14:cf:bf:
         23:cd:9e:eb:4d:ea:03:a6:a0:8d:a9:30:e0:45:80:46:cd:e1:
         21:ba:aa:c5:0f:aa:60:fe:5c:40:b4:a3:fa:db:08:f5:02:bb:
         fd:5c:65:3e:c5:88:01:3d:ab:fd:27:07:ca:e2:33:31:f1:17:
         c5:91:8d:b8:48:d5:6f:fa:9c:d6:b5:c8:3e:fc:00:a8:77:37:
         36:cb:40:8d
-----BEGIN CERTIFICATE-----
MIIDXTCCAkWgAwIBAgIRALPjDZStCB3Oj2H8PUpLAoUwDQYJKoZIhvcNAQELBQAw
FzEVMBMGA1UEAwwMUmVkVmVjdG9yLUNBMB4XDTI2MDUyODE4NDMxM1oXDTI5MDUx
MjE4NDMxM1owFzEVMBMGA1UEAwwMUmVkVmVjdG9yLUNBMIIBIjANBgkqhkiG9w0B
AQEFAAOCAQ8AMIIBCgKCAQEAyCUczX/Ihsroq5Kc6/NCH+2L6nTUyR2pFJplxWdo
QAXXhruBJEP/+3rHjkmqDcz4xlxAlgxpI93NhTQqZvg+3Ua17Zfqargv3gM1gMGh
0spUDXRD/s4nbn+Rp0IQLHzFCqT+nGKb+W0MmtFkElKLAFLVrlnwypuLtPII2dC8
X7YTiprj+7cr3Us1Z59tUdZBNFA69sfD2OTkFOeGspRRRvLk/8RIMD3Ja+CSscoT
Ks1abo9Ivpmsi9Zr/npPnTgnEff5upZIxlf/XcqmA3ZjzsnrbmZcRJz2AHWtysgL
AZ6azlXbdUtjCUnLSVVvyDJftiBg80khHntAEe5iQpVL2wIDAQABo4GjMIGgMAkG
A1UdEwQCMAAwHQYDVR0OBBYEFEVS3YZx1rys1i9VCNNGxQ4qTu9aMFIGA1UdIwRL
MEmAFBrrFRsLV3ZBxhlizUjrzeAf6d2VoRukGTAXMRUwEwYDVQQDDAxSZWRWZWN0
b3ItQ0GCFHLNcYkAiWjP2MCywmYBOQJona7ZMBMGA1UdJQQMMAoGCCsGAQUFBwMC
MAsGA1UdDwQEAwIHgDANBgkqhkiG9w0BAQsFAAOCAQEAZxWox9EKjnBq6G17t6OV
5LTGQ/nC0OzZKdNGI3B/Qb0WlTxUQhe3tiEkmb5fxZ2k2/mSILST7aNcH2t/IoK6
ppJjzrZ5pfMVJHrsSmGHjAZkFiX4LcZrhitlbBQIcFrDBo/7HZZaw3exZztiC8H5
sQ9c7l30QvMsfCrD4RI9ql1wWzvB1tyibKMkOLdm0R6H3XwFHE9f1SutvAPccIH5
x76Uh/xRZy3hdu+Pt4llgJMEFM+/I82e603qA6agjakw4EWARs3hIbqqxQ+qYP5c
QLSj+tsI9QK7/VxlPsWIAT2r/ScHyuIzMfEXxZGNuEjVb/qc1rXIPvwAqHc3NstA
jQ==
-----END CERTIFICATE-----
